target datalayout = "e-m:e-p270:32:32-p271:32:32-p272:64:64-i64:64-i128:128-f80:128-n8:16:32:64-S128"
target triple = "x86_64-pc-linux-gnu"

%struct.job_record = type { i32, ptr, ptr, ptr, ptr, i16, i32, i32, i32, ptr, i32, ptr, ptr, i16, ptr, double, i64, ptr, ptr, ptr, ptr, ptr, ptr, i32, ptr, i32, i64, i64, i32, i32, ptr, i16, i64, i64, i8, i32, ptr, ptr, ptr, ptr, ptr, ptr, ptr, ptr, i32, ptr, ptr, i32, ptr, i32, ptr, i32, ptr, i32, ptr, ptr, ptr, ptr, ptr, ptr, i32, i16, i64, ptr, ptr, ptr, ptr, %struct.acct_policy_limit_set_t, i16, ptr, ptr, ptr, ptr, ptr, i32, ptr, ptr, ptr, ptr, ptr, i32, i32, ptr, ptr, ptr, i16, ptr, ptr, i8, ptr, ptr, i64, i64, i8, i32, i32, i8, i32, ptr, i32, i64, i32, ptr, ptr, ptr, i8, i16, i64, i32, ptr, ptr, ptr, ptr, ptr, i16, i32, ptr, ptr, ptr, ptr, i32, ptr, i32, i16, i64, ptr, i32, i32, ptr, i64, ptr, ptr, i64, i32, i32, i64, i32, i32, ptr, ptr, ptr, ptr, ptr, ptr, ptr, ptr, ptr, ptr, ptr, ptr, i32, ptr, i16, i16, i16, i16, ptr, i32, i32, i8, i64 }
%struct.acct_policy_limit_set_t = type { i16, i16, ptr }
%struct.job_details_t = type { i32, ptr, i64, ptr, i32, ptr, i64, ptr, i16, i16, ptr, i16, i32, i32, i32, i16, ptr, i16, ptr, ptr, ptr, i16, ptr, ptr, ptr, ptr, i32, ptr, ptr, ptr, ptr, ptr, i32, i32, i32, ptr, ptr, i16, i32, i32, i32, i32, i32, i32, i16, i16, i32, i8, i8, i32, i32, i64, i64, i16, i32, ptr, ptr, i8, ptr, i32, ptr, i64, ptr, ptr, i16, i16, i16, i8, ptr, ptr, ptr, ptr, ptr, ptr, i64, i32, i32, i8, ptr, i16, ptr, ptr, i16 }
%struct.slurmdb_assoc_rec = type { ptr, ptr, ptr, ptr, ptr, ptr, ptr, i32, i32, i32, i32, i32, ptr, ptr, ptr, ptr, ptr, ptr, i32, i32, i16, ptr, ptr, i32, i32, i32, ptr, ptr, ptr, ptr, ptr, ptr, ptr, ptr, i32, i32, ptr, i32, ptr, i32, ptr, i32, i32, ptr, ptr, ptr }

@plugin_name = dso_local constant [19 x i8] c"mcs account plugin\00", align 16
@plugin_type = dso_local constant [12 x i8] c"mcs/account\00", align 1
@plugin_version = dso_local constant i32 1639680, align 4
@.str = private unnamed_addr constant [18 x i8] c"%s: %s: %s loaded\00", align 1
@__func__.init = private unnamed_addr constant [5 x i8] c"init\00", align 1
@acct_db_conn = external global ptr, align 8
@accounting_enforce = external global i16, align 2

; Function Attrs: nounwind uwtable
define dso_local i32 @init() #0 {
  br label %1

1:                                                ; preds = %0
  br label %2

2:                                                ; preds = %1
  %3 = call i32 @get_log_level()
  %4 = icmp sge i32 %3, 5
  br i1 %4, label %5, label %6

5:                                                ; preds = %2
  call void (i32, ptr, ...) @log_var(i32 noundef 5, ptr noundef @.str, ptr noundef @plugin_type, ptr noundef @__func__.init, ptr noundef @plugin_name)
  br label %6

6:                                                ; preds = %5, %2
  br label %7

7:                                                ; preds = %6
  br label %8

8:                                                ; preds = %7
  ret i32 0
}

declare i32 @get_log_level() #1

declare void @log_var(i32 noundef, ptr noundef, ...) #1

; Function Attrs: nounwind uwtable
define dso_local i32 @fini() #0 {
  ret i32 0
}

; Function Attrs: nounwind uwtable
define dso_local i32 @mcs_p_set_mcs_label(ptr noundef %0, ptr noundef %1) #0 {
  %3 = alloca ptr, align 8
  %4 = alloca ptr, align 8
  %5 = alloca i32, align 4
  store ptr %0, ptr %3, align 8
  store ptr %1, ptr %4, align 8
  call void @llvm.lifetime.start.p0(i64 4, ptr %5) #4
  store i32 0, ptr %5, align 4
  %6 = load ptr, ptr %3, align 8
  %7 = getelementptr inbounds nuw %struct.job_record, ptr %6, i32 0, i32 71
  call void @slurm_xfree(ptr noundef %7)
  %8 = load ptr, ptr %4, align 8
  %9 = icmp ne ptr %8, null
  br i1 %9, label %10, label %26

10:                                               ; preds = %2
  %11 = load ptr, ptr %4, align 8
  %12 = load ptr, ptr %3, align 8
  %13 = getelementptr inbounds nuw %struct.job_record, ptr %12, i32 0, i32 1
  %14 = load ptr, ptr %13, align 8
  %15 = call i32 @xstrcmp(ptr noundef %11, ptr noundef %14)
  %16 = icmp ne i32 %15, 0
  br i1 %16, label %24, label %17

17:                                               ; preds = %10
  %18 = load ptr, ptr %3, align 8
  %19 = getelementptr inbounds nuw %struct.job_record, ptr %18, i32 0, i32 1
  %20 = load ptr, ptr %19, align 8
  %21 = call ptr @xstrdup(ptr noundef %20)
  %22 = load ptr, ptr %3, align 8
  %23 = getelementptr inbounds nuw %struct.job_record, ptr %22, i32 0, i32 71
  store ptr %21, ptr %23, align 8
  br label %25

24:                                               ; preds = %10
  store i32 -1, ptr %5, align 4
  br label %25

25:                                               ; preds = %24, %17
  br label %52

26:                                               ; preds = %2
  %27 = call i32 @slurm_mcs_get_enforced()
  %28 = icmp eq i32 %27, 0
  br i1 %28, label %29, label %44

29:                                               ; preds = %26
  %30 = load ptr, ptr %3, align 8
  %31 = getelementptr inbounds nuw %struct.job_record, ptr %30, i32 0, i32 30
  %32 = load ptr, ptr %31, align 8
  %33 = icmp ne ptr %32, null
  br i1 %33, label %34, label %44

34:                                               ; preds = %29
  %35 = load ptr, ptr %3, align 8
  %36 = getelementptr inbounds nuw %struct.job_record, ptr %35, i32 0, i32 30
  %37 = load ptr, ptr %36, align 8
  %38 = getelementptr inbounds nuw %struct.job_details_t, ptr %37, i32 0, i32 77
  %39 = load i8, ptr %38, align 8
  %40 = zext i8 %39 to i32
  %41 = and i32 %40, 4
  %42 = icmp ne i32 %41, 0
  br i1 %42, label %44, label %43

43:                                               ; preds = %34
  br label %51

44:                                               ; preds = %34, %29, %26
  %45 = load ptr, ptr %3, align 8
  %46 = getelementptr inbounds nuw %struct.job_record, ptr %45, i32 0, i32 1
  %47 = load ptr, ptr %46, align 8
  %48 = call ptr @xstrdup(ptr noundef %47)
  %49 = load ptr, ptr %3, align 8
  %50 = getelementptr inbounds nuw %struct.job_record, ptr %49, i32 0, i32 71
  store ptr %48, ptr %50, align 8
  br label %51

51:                                               ; preds = %44, %43
  br label %52

52:                                               ; preds = %51, %25
  %53 = load i32, ptr %5, align 4
  call void @llvm.lifetime.end.p0(i64 4, ptr %5) #4
  ret i32 %53
}

; Function Attrs: nocallback nofree nosync nounwind willreturn memory(argmem: readwrite)
declare void @llvm.lifetime.start.p0(i64 immarg, ptr captures(none)) #2

declare void @slurm_xfree(ptr noundef) #1

declare i32 @xstrcmp(ptr noundef, ptr noundef) #1

declare ptr @xstrdup(ptr noundef) #1

declare i32 @slurm_mcs_get_enforced() #1

; Function Attrs: nocallback nofree nosync nounwind willreturn memory(argmem: readwrite)
declare void @llvm.lifetime.end.p0(i64 immarg, ptr captures(none)) #2

; Function Attrs: nounwind uwtable
define dso_local i32 @mcs_p_check_mcs_label(i32 noundef %0, ptr noundef %1, i1 noundef zeroext %2) #0 {
  %4 = alloca i32, align 4
  %5 = alloca ptr, align 8
  %6 = alloca i8, align 1
  %7 = alloca %struct.slurmdb_assoc_rec, align 8
  %8 = alloca i32, align 4
  store i32 %0, ptr %4, align 4
  store ptr %1, ptr %5, align 8
  %9 = zext i1 %2 to i8
  store i8 %9, ptr %6, align 1
  call void @llvm.lifetime.start.p0(i64 320, ptr %7) #4
  call void @llvm.lifetime.start.p0(i64 4, ptr %8) #4
  store i32 0, ptr %8, align 4
  call void @llvm.memset.p0.i64(ptr align 8 %7, i8 0, i64 320, i1 false)
  %10 = load ptr, ptr %5, align 8
  %11 = getelementptr inbounds nuw %struct.slurmdb_assoc_rec, ptr %7, i32 0, i32 1
  store ptr %10, ptr %11, align 8
  %12 = load i32, ptr %4, align 4
  %13 = getelementptr inbounds nuw %struct.slurmdb_assoc_rec, ptr %7, i32 0, i32 42
  store i32 %12, ptr %13, align 4
  %14 = load ptr, ptr %5, align 8
  %15 = icmp ne ptr %14, null
  br i1 %15, label %16, label %27

16:                                               ; preds = %3
  %17 = load ptr, ptr @acct_db_conn, align 8
  %18 = load i16, ptr @accounting_enforce, align 2
  %19 = zext i16 %18 to i32
  %20 = load i8, ptr %6, align 1, !range !8, !noundef !9
  %21 = trunc i8 %20 to i1
  %22 = call i32 @assoc_mgr_fill_in_assoc(ptr noundef %17, ptr noundef %7, i32 noundef %19, ptr noundef null, i1 noundef zeroext %21)
  %23 = icmp ne i32 %22, 0
  br i1 %23, label %25, label %24

24:                                               ; preds = %16
  store i32 0, ptr %8, align 4
  br label %26

25:                                               ; preds = %16
  store i32 -1, ptr %8, align 4
  br label %26

26:                                               ; preds = %25, %24
  br label %27

27:                                               ; preds = %26, %3
  %28 = load i32, ptr %8, align 4
  call void @llvm.lifetime.end.p0(i64 4, ptr %8) #4
  call void @llvm.lifetime.end.p0(i64 320, ptr %7) #4
  ret i32 %28
}

; Function Attrs: nocallback nofree nounwind willreturn memory(argmem: write)
declare void @llvm.memset.p0.i64(ptr writeonly captures(none), i8, i64, i1 immarg) #3

declare i32 @assoc_mgr_fill_in_assoc(ptr noundef, ptr noundef, i32 noundef, ptr noundef, i1 noundef zeroext) #1


!llvm.module.flags = !{!0, !1, !2, !3, !4, !5, !6, !7}

!0 = !{i32 7, !"Dwarf Version", i32 5}
!1 = !{i32 2, !"Debug Info Version", i32 3}
!2 = !{i32 1, !"wchar_size", i32 4}
!3 = !{i32 8, !"PIC Level", i32 2}
!4 = !{i32 7, !"PIE Level", i32 2}
!5 = !{i32 7, !"uwtable", i32 2}
!6 = !{i32 7, !"frame-pointer", i32 2}
!7 = !{i32 7, !"debug-info-assignment-tracking", i1 true}
!8 = !{i8 0, i8 2}
!9 = !{}
