; ModuleID = 'bench/slurm/original/mcs_account.ll'
source_filename = "bench/slurm/original/mcs_account.ll"
target datalayout = "e-m:e-p270:32:32-p271:32:32-p272:64:64-i64:64-i128:128-f80:128-n8:16:32:64-S128"
target triple = "x86_64-pc-linux-gnu"

%struct.slurmdb_assoc_rec = type { ptr, ptr, ptr, ptr, ptr, ptr, ptr, i32, i32, i32, i32, i32, ptr, ptr, ptr, ptr, ptr, ptr, i32, i32, i16, ptr, ptr, i32, i32, i32, ptr, ptr, ptr, ptr, ptr, ptr, ptr, ptr, i32, i32, ptr, i32, ptr, i32, ptr, i32, i32, ptr, ptr, ptr }

@plugin_name = dso_local constant [19 x i8] c"mcs account plugin\00", align 16
@plugin_type = dso_local constant [12 x i8] c"mcs/account\00", align 1
@plugin_version = dso_local local_unnamed_addr constant i32 1639680, align 4
@.str = private unnamed_addr constant [18 x i8] c"%s: %s: %s loaded\00", align 1
@__func__.init = private unnamed_addr constant [5 x i8] c"init\00", align 1
@acct_db_conn = external local_unnamed_addr global ptr, align 8
@accounting_enforce = external local_unnamed_addr global i16, align 2

; Function Attrs: nounwind uwtable
define dso_local noundef i32 @init() local_unnamed_addr #0 {
  %1 = tail call i32 @get_log_level() #5
  %2 = icmp sgt i32 %1, 4
  br i1 %2, label %3, label %4

3:                                                ; preds = %0
  tail call void (i32, ptr, ...) @log_var(i32 noundef 5, ptr noundef nonnull @.str, ptr noundef nonnull @plugin_type, ptr noundef nonnull @__func__.init, ptr noundef nonnull @plugin_name) #5
  br label %4

4:                                                ; preds = %3, %0
  ret i32 0
}

declare i32 @get_log_level() local_unnamed_addr #1

declare void @log_var(i32 noundef, ptr noundef, ...) local_unnamed_addr #1

; Function Attrs: mustprogress nofree norecurse nosync nounwind willreturn memory(none) uwtable
define dso_local noundef i32 @fini() local_unnamed_addr #2 {
  ret i32 0
}

; Function Attrs: nounwind uwtable
define dso_local range(i32 -1, 1) i32 @mcs_p_set_mcs_label(ptr noundef %0, ptr noundef %1) local_unnamed_addr #0 {
  %3 = getelementptr inbounds nuw i8, ptr %0, i64 536
  tail call void @slurm_xfree(ptr noundef nonnull %3) #5
  %.not = icmp eq ptr %1, null
  br i1 %.not, label %8, label %4

4:                                                ; preds = %2
  %5 = getelementptr inbounds nuw i8, ptr %0, i64 8
  %6 = load ptr, ptr %5, align 8
  %7 = tail call i32 @xstrcmp(ptr noundef nonnull %1, ptr noundef %6) #5
  %.not14 = icmp eq i32 %7, 0
  br i1 %.not14, label %.sink.split, label %21

8:                                                ; preds = %2
  %9 = tail call i32 @slurm_mcs_get_enforced() #5
  %10 = icmp eq i32 %9, 0
  br i1 %10, label %11, label %18

11:                                               ; preds = %8
  %12 = getelementptr inbounds nuw i8, ptr %0, i64 216
  %13 = load ptr, ptr %12, align 8
  %.not12 = icmp eq ptr %13, null
  br i1 %.not12, label %18, label %14

14:                                               ; preds = %11
  %15 = getelementptr inbounds nuw i8, ptr %13, i64 480
  %16 = load i8, ptr %15, align 8
  %17 = and i8 %16, 4
  %.not13 = icmp eq i8 %17, 0
  br i1 %.not13, label %21, label %18

18:                                               ; preds = %14, %11, %8
  %19 = getelementptr inbounds nuw i8, ptr %0, i64 8
  br label %.sink.split

.sink.split:                                      ; preds = %4, %18
  %.sink15.in = phi ptr [ %19, %18 ], [ %5, %4 ]
  %.sink15 = load ptr, ptr %.sink15.in, align 8
  %20 = tail call ptr @xstrdup(ptr noundef %.sink15) #5
  store ptr %20, ptr %3, align 8
  br label %21

21:                                               ; preds = %.sink.split, %4, %14
  %.0 = phi i32 [ 0, %14 ], [ -1, %4 ], [ 0, %.sink.split ]
  ret i32 %.0
}

; Function Attrs: mustprogress nocallback nofree nosync nounwind willreturn memory(argmem: readwrite)
declare void @llvm.lifetime.start.p0(i64 immarg, ptr captures(none)) #3

declare void @slurm_xfree(ptr noundef) local_unnamed_addr #1

declare i32 @xstrcmp(ptr noundef, ptr noundef) local_unnamed_addr #1

declare ptr @xstrdup(ptr noundef) local_unnamed_addr #1

declare i32 @slurm_mcs_get_enforced() local_unnamed_addr #1

; Function Attrs: mustprogress nocallback nofree nosync nounwind willreturn memory(argmem: readwrite)
declare void @llvm.lifetime.end.p0(i64 immarg, ptr captures(none)) #3

; Function Attrs: nounwind uwtable
define dso_local range(i32 -1, 1) i32 @mcs_p_check_mcs_label(i32 noundef %0, ptr noundef %1, i1 noundef zeroext %2) local_unnamed_addr #0 {
  %4 = alloca %struct.slurmdb_assoc_rec, align 8
  call void @llvm.lifetime.start.p0(i64 320, ptr nonnull %4) #5
  call void @llvm.memset.p0.i64(ptr noundef nonnull align 8 dereferenceable(320) %4, i8 0, i64 320, i1 false)
  %5 = getelementptr inbounds nuw i8, ptr %4, i64 8
  store ptr %1, ptr %5, align 8
  %6 = getelementptr inbounds nuw i8, ptr %4, i64 292
  store i32 %0, ptr %6, align 4
  %.not = icmp eq ptr %1, null
  br i1 %.not, label %12, label %7

7:                                                ; preds = %3
  %8 = load ptr, ptr @acct_db_conn, align 8
  %9 = load i16, ptr @accounting_enforce, align 2
  %10 = zext i16 %9 to i32
  %11 = call i32 @assoc_mgr_fill_in_assoc(ptr noundef %8, ptr noundef nonnull %4, i32 noundef %10, ptr noundef null, i1 noundef zeroext %2) #5
  %.not4 = icmp ne i32 %11, 0
  %. = sext i1 %.not4 to i32
  br label %12

12:                                               ; preds = %7, %3
  %.0 = phi i32 [ 0, %3 ], [ %., %7 ]
  call void @llvm.lifetime.end.p0(i64 320, ptr nonnull %4) #5
  ret i32 %.0
}

; Function Attrs: mustprogress nocallback nofree nounwind willreturn memory(argmem: write)
declare void @llvm.memset.p0.i64(ptr writeonly captures(none), i8, i64, i1 immarg) #4

declare i32 @assoc_mgr_fill_in_assoc(ptr noundef, ptr noundef, i32 noundef, ptr noundef, i1 noundef zeroext) local_unnamed_addr #1


!llvm.module.flags = !{!0, !1, !2, !3, !4, !5, !6, !7}

!0 = !{i32 7, !"Dwarf Version", i32 5}
!1 = !{i32 2, !"Debug Info Version", i32 3}
!2 = !{i32 1, !"wchar_size", i32 4}
!3 = !{i32 8, !"PIC Level", i32 2}
!4 = !{i32 7, !"PIE Level", i32 2}
!5 = !{i32 7, !"uwtable", i32 2}
!6 = !{i32 7, !"frame-pointer", i32 2}
!7 = !{i32 7, !"debug-info-assignment-tracking", i1 true}
